target datalayout = "e-m:e-p270:32:32-p271:32:32-p272:64:64-i64:64-i128:128-f80:128-n8:16:32:64-S128"
target triple = "x86_64-pc-linux-gnu"

; Function Attrs: nounwind uwtable
define internal void @ps_hybrid_analysis_c(ptr noalias noundef %0, ptr noundef %1, ptr noundef %2, i64 noundef %3, i32 noundef %4) #1 {
  %6 = alloca ptr, align 8
  %7 = alloca ptr, align 8
  %8 = alloca ptr, align 8
  %9 = alloca i64, align 8
  %10 = alloca i32, align 4
  %11 = alloca [6 x i64], align 16
  %12 = alloca [6 x i64], align 16
  %13 = alloca [6 x i64], align 16
  %14 = alloca [6 x i64], align 16
  %15 = alloca i32, align 4
  %16 = alloca i32, align 4
  %17 = alloca i32, align 4
  %18 = alloca i64, align 8
  %19 = alloca i64, align 8
  %20 = alloca i32, align 4
  store ptr %0, ptr %6, align 8, !tbaa !17
  store ptr %1, ptr %7, align 8, !tbaa !17
  store ptr %2, ptr %8, align 8, !tbaa !17
  store i64 %3, ptr %9, align 8, !tbaa !24
  store i32 %4, ptr %10, align 4, !tbaa !19
  call void @llvm.lifetime.start.p0(i64 48, ptr %11) #3
  call void @llvm.lifetime.start.p0(i64 48, ptr %12) #3
  call void @llvm.lifetime.start.p0(i64 48, ptr %13) #3
  call void @llvm.lifetime.start.p0(i64 48, ptr %14) #3
  call void @llvm.lifetime.start.p0(i64 4, ptr %15) #3
  store i32 0, ptr %15, align 4, !tbaa !19
  br label %21

21:                                               ; preds = %98, %5
  %22 = load i32, ptr %15, align 4, !tbaa !19
  %23 = icmp slt i32 %22, 6
  br i1 %23, label %25, label %24

24:                                               ; preds = %21
  call void @llvm.lifetime.end.p0(i64 4, ptr %15) #3
  br label %101

25:                                               ; preds = %21
  %26 = load ptr, ptr %7, align 8, !tbaa !17
  %27 = load i32, ptr %15, align 4, !tbaa !19
  %28 = sext i32 %27 to i64
  %29 = getelementptr inbounds [2 x i32], ptr %26, i64 %28
  %30 = getelementptr inbounds [2 x i32], ptr %29, i64 0, i64 0
  %31 = load i32, ptr %30, align 4, !tbaa !19
  %32 = load ptr, ptr %7, align 8, !tbaa !17
  %33 = load i32, ptr %15, align 4, !tbaa !19
  %34 = sub nsw i32 12, %33
  %35 = sext i32 %34 to i64
  %36 = getelementptr inbounds [2 x i32], ptr %32, i64 %35
  %37 = getelementptr inbounds [2 x i32], ptr %36, i64 0, i64 0
  %38 = load i32, ptr %37, align 4, !tbaa !19
  %39 = add nsw i32 %31, %38
  %40 = sext i32 %39 to i64
  %41 = load i32, ptr %15, align 4, !tbaa !19
  %42 = sext i32 %41 to i64
  %43 = getelementptr inbounds [6 x i64], ptr %11, i64 0, i64 %42
  store i64 %40, ptr %43, align 8, !tbaa !24
  %44 = load ptr, ptr %7, align 8, !tbaa !17
  %45 = load i32, ptr %15, align 4, !tbaa !19
  %46 = sext i32 %45 to i64
  %47 = getelementptr inbounds [2 x i32], ptr %44, i64 %46
  %48 = getelementptr inbounds [2 x i32], ptr %47, i64 0, i64 1
  %49 = load i32, ptr %48, align 4, !tbaa !19
  %50 = load ptr, ptr %7, align 8, !tbaa !17
  %51 = load i32, ptr %15, align 4, !tbaa !19
  %52 = sub nsw i32 12, %51
  %53 = sext i32 %52 to i64
  %54 = getelementptr inbounds [2 x i32], ptr %50, i64 %53
  %55 = getelementptr inbounds [2 x i32], ptr %54, i64 0, i64 1
  %56 = load i32, ptr %55, align 4, !tbaa !19
  %57 = sub nsw i32 %49, %56
  %58 = sext i32 %57 to i64
  %59 = load i32, ptr %15, align 4, !tbaa !19
  %60 = sext i32 %59 to i64
  %61 = getelementptr inbounds [6 x i64], ptr %12, i64 0, i64 %60
  store i64 %58, ptr %61, align 8, !tbaa !24
  %62 = load ptr, ptr %7, align 8, !tbaa !17
  %63 = load i32, ptr %15, align 4, !tbaa !19
  %64 = sext i32 %63 to i64
  %65 = getelementptr inbounds [2 x i32], ptr %62, i64 %64
  %66 = getelementptr inbounds [2 x i32], ptr %65, i64 0, i64 1
  %67 = load i32, ptr %66, align 4, !tbaa !19
  %68 = load ptr, ptr %7, align 8, !tbaa !17
  %69 = load i32, ptr %15, align 4, !tbaa !19
  %70 = sub nsw i32 12, %69
  %71 = sext i32 %70 to i64
  %72 = getelementptr inbounds [2 x i32], ptr %68, i64 %71
  %73 = getelementptr inbounds [2 x i32], ptr %72, i64 0, i64 1
  %74 = load i32, ptr %73, align 4, !tbaa !19
  %75 = add nsw i32 %67, %74
  %76 = sext i32 %75 to i64
  %77 = load i32, ptr %15, align 4, !tbaa !19
  %78 = sext i32 %77 to i64
  %79 = getelementptr inbounds [6 x i64], ptr %13, i64 0, i64 %78
  store i64 %76, ptr %79, align 8, !tbaa !24
  %80 = load ptr, ptr %7, align 8, !tbaa !17
  %81 = load i32, ptr %15, align 4, !tbaa !19
  %82 = sext i32 %81 to i64
  %83 = getelementptr inbounds [2 x i32], ptr %80, i64 %82
  %84 = getelementptr inbounds [2 x i32], ptr %83, i64 0, i64 0
  %85 = load i32, ptr %84, align 4, !tbaa !19
  %86 = load ptr, ptr %7, align 8, !tbaa !17
  %87 = load i32, ptr %15, align 4, !tbaa !19
  %88 = sub nsw i32 12, %87
  %89 = sext i32 %88 to i64
  %90 = getelementptr inbounds [2 x i32], ptr %86, i64 %89
  %91 = getelementptr inbounds [2 x i32], ptr %90, i64 0, i64 0
  %92 = load i32, ptr %91, align 4, !tbaa !19
  %93 = sub nsw i32 %85, %92
  %94 = sext i32 %93 to i64
  %95 = load i32, ptr %15, align 4, !tbaa !19
  %96 = sext i32 %95 to i64
  %97 = getelementptr inbounds [6 x i64], ptr %14, i64 0, i64 %96
  store i64 %94, ptr %97, align 8, !tbaa !24
  br label %98

98:                                               ; preds = %25
  %99 = load i32, ptr %15, align 4, !tbaa !19
  %100 = add nsw i32 %99, 1
  store i32 %100, ptr %15, align 4, !tbaa !19
  br label %21, !llvm.loop !26

101:                                              ; preds = %24
  call void @llvm.lifetime.start.p0(i64 4, ptr %16) #3
  store i32 0, ptr %16, align 4, !tbaa !19
  br label %102

102:                                              ; preds = %233, %101
  %103 = load i32, ptr %16, align 4, !tbaa !19
  %104 = load i32, ptr %10, align 4, !tbaa !19
  %105 = icmp slt i32 %103, %104
  br i1 %105, label %107, label %106

106:                                              ; preds = %102
  store i32 5, ptr %17, align 4
  call void @llvm.lifetime.end.p0(i64 4, ptr %16) #3
  br label %236

107:                                              ; preds = %102
  call void @llvm.lifetime.start.p0(i64 8, ptr %18) #3
  %108 = load ptr, ptr %8, align 8, !tbaa !17
  %109 = load i32, ptr %16, align 4, !tbaa !19
  %110 = sext i32 %109 to i64
  %111 = getelementptr inbounds [8 x [2 x i32]], ptr %108, i64 %110
  %112 = getelementptr inbounds [8 x [2 x i32]], ptr %111, i64 0, i64 6
  %113 = getelementptr inbounds [2 x i32], ptr %112, i64 0, i64 0
  %114 = load i32, ptr %113, align 4, !tbaa !19
  %115 = sext i32 %114 to i64
  %116 = load ptr, ptr %7, align 8, !tbaa !17
  %117 = getelementptr inbounds [2 x i32], ptr %116, i64 6
  %118 = getelementptr inbounds [2 x i32], ptr %117, i64 0, i64 0
  %119 = load i32, ptr %118, align 4, !tbaa !19
  %120 = sext i32 %119 to i64
  %121 = mul nsw i64 %115, %120
  store i64 %121, ptr %18, align 8, !tbaa !24
  call void @llvm.lifetime.start.p0(i64 8, ptr %19) #3
  %122 = load ptr, ptr %8, align 8, !tbaa !17
  %123 = load i32, ptr %16, align 4, !tbaa !19
  %124 = sext i32 %123 to i64
  %125 = getelementptr inbounds [8 x [2 x i32]], ptr %122, i64 %124
  %126 = getelementptr inbounds [8 x [2 x i32]], ptr %125, i64 0, i64 6
  %127 = getelementptr inbounds [2 x i32], ptr %126, i64 0, i64 0
  %128 = load i32, ptr %127, align 4, !tbaa !19
  %129 = sext i32 %128 to i64
  %130 = load ptr, ptr %7, align 8, !tbaa !17
  %131 = getelementptr inbounds [2 x i32], ptr %130, i64 6
  %132 = getelementptr inbounds [2 x i32], ptr %131, i64 0, i64 1
  %133 = load i32, ptr %132, align 4, !tbaa !19
  %134 = sext i32 %133 to i64
  %135 = mul nsw i64 %129, %134
  store i64 %135, ptr %19, align 8, !tbaa !24
  call void @llvm.lifetime.start.p0(i64 4, ptr %20) #3
  store i32 0, ptr %20, align 4, !tbaa !19
  br label %136

136:                                              ; preds = %207, %107
  %137 = load i32, ptr %20, align 4, !tbaa !19
  %138 = icmp slt i32 %137, 6
  br i1 %138, label %140, label %139

139:                                              ; preds = %136
  store i32 8, ptr %17, align 4
  call void @llvm.lifetime.end.p0(i64 4, ptr %20) #3
  br label %210

140:                                              ; preds = %136
  %141 = load ptr, ptr %8, align 8, !tbaa !17
  %142 = load i32, ptr %16, align 4, !tbaa !19
  %143 = sext i32 %142 to i64
  %144 = getelementptr inbounds [8 x [2 x i32]], ptr %141, i64 %143
  %145 = load i32, ptr %20, align 4, !tbaa !19
  %146 = sext i32 %145 to i64
  %147 = getelementptr inbounds [8 x [2 x i32]], ptr %144, i64 0, i64 %146
  %148 = getelementptr inbounds [2 x i32], ptr %147, i64 0, i64 0
  %149 = load i32, ptr %148, align 4, !tbaa !19
  %150 = sext i32 %149 to i64
  %151 = load i32, ptr %20, align 4, !tbaa !19
  %152 = sext i32 %151 to i64
  %153 = getelementptr inbounds [6 x i64], ptr %11, i64 0, i64 %152
  %154 = load i64, ptr %153, align 8, !tbaa !24
  %155 = mul nsw i64 %150, %154
  %156 = load ptr, ptr %8, align 8, !tbaa !17
  %157 = load i32, ptr %16, align 4, !tbaa !19
  %158 = sext i32 %157 to i64
  %159 = getelementptr inbounds [8 x [2 x i32]], ptr %156, i64 %158
  %160 = load i32, ptr %20, align 4, !tbaa !19
  %161 = sext i32 %160 to i64
  %162 = getelementptr inbounds [8 x [2 x i32]], ptr %159, i64 0, i64 %161
  %163 = getelementptr inbounds [2 x i32], ptr %162, i64 0, i64 1
  %164 = load i32, ptr %163, align 4, !tbaa !19
  %165 = sext i32 %164 to i64
  %166 = load i32, ptr %20, align 4, !tbaa !19
  %167 = sext i32 %166 to i64
  %168 = getelementptr inbounds [6 x i64], ptr %12, i64 0, i64 %167
  %169 = load i64, ptr %168, align 8, !tbaa !24
  %170 = mul nsw i64 %165, %169
  %171 = sub nsw i64 %155, %170
  %172 = load i64, ptr %18, align 8, !tbaa !24
  %173 = add nsw i64 %172, %171
  store i64 %173, ptr %18, align 8, !tbaa !24
  %174 = load ptr, ptr %8, align 8, !tbaa !17
  %175 = load i32, ptr %16, align 4, !tbaa !19
  %176 = sext i32 %175 to i64
  %177 = getelementptr inbounds [8 x [2 x i32]], ptr %174, i64 %176
  %178 = load i32, ptr %20, align 4, !tbaa !19
  %179 = sext i32 %178 to i64
  %180 = getelementptr inbounds [8 x [2 x i32]], ptr %177, i64 0, i64 %179
  %181 = getelementptr inbounds [2 x i32], ptr %180, i64 0, i64 0
  %182 = load i32, ptr %181, align 4, !tbaa !19
  %183 = sext i32 %182 to i64
  %184 = load i32, ptr %20, align 4, !tbaa !19
  %185 = sext i32 %184 to i64
  %186 = getelementptr inbounds [6 x i64], ptr %13, i64 0, i64 %185
  %187 = load i64, ptr %186, align 8, !tbaa !24
  %188 = mul nsw i64 %183, %187
  %189 = load ptr, ptr %8, align 8, !tbaa !17
  %190 = load i32, ptr %16, align 4, !tbaa !19
  %191 = sext i32 %190 to i64
  %192 = getelementptr inbounds [8 x [2 x i32]], ptr %189, i64 %191
  %193 = load i32, ptr %20, align 4, !tbaa !19
  %194 = sext i32 %193 to i64
  %195 = getelementptr inbounds [8 x [2 x i32]], ptr %192, i64 0, i64 %194
  %196 = getelementptr inbounds [2 x i32], ptr %195, i64 0, i64 1
  %197 = load i32, ptr %196, align 4, !tbaa !19
  %198 = sext i32 %197 to i64
  %199 = load i32, ptr %20, align 4, !tbaa !19
  %200 = sext i32 %199 to i64
  %201 = getelementptr inbounds [6 x i64], ptr %14, i64 0, i64 %200
  %202 = load i64, ptr %201, align 8, !tbaa !24
  %203 = mul nsw i64 %198, %202
  %204 = add nsw i64 %188, %203
  %205 = load i64, ptr %19, align 8, !tbaa !24
  %206 = add nsw i64 %205, %204
  store i64 %206, ptr %19, align 8, !tbaa !24
  br label %207

207:                                              ; preds = %140
  %208 = load i32, ptr %20, align 4, !tbaa !19
  %209 = add nsw i32 %208, 1
  store i32 %209, ptr %20, align 4, !tbaa !19
  br label %136, !llvm.loop !27

210:                                              ; preds = %139
  %211 = load i64, ptr %18, align 8, !tbaa !24
  %212 = add nsw i64 %211, 1073741824
  %213 = ashr i64 %212, 31
  %214 = trunc i64 %213 to i32
  %215 = load ptr, ptr %6, align 8, !tbaa !17
  %216 = load i32, ptr %16, align 4, !tbaa !19
  %217 = sext i32 %216 to i64
  %218 = load i64, ptr %9, align 8, !tbaa !24
  %219 = mul nsw i64 %217, %218
  %220 = getelementptr inbounds [2 x i32], ptr %215, i64 %219
  %221 = getelementptr inbounds [2 x i32], ptr %220, i64 0, i64 0
  store i32 %214, ptr %221, align 4, !tbaa !19
  %222 = load i64, ptr %19, align 8, !tbaa !24
  %223 = add nsw i64 %222, 1073741824
  %224 = ashr i64 %223, 31
  %225 = trunc i64 %224 to i32
  %226 = load ptr, ptr %6, align 8, !tbaa !17
  %227 = load i32, ptr %16, align 4, !tbaa !19
  %228 = sext i32 %227 to i64
  %229 = load i64, ptr %9, align 8, !tbaa !24
  %230 = mul nsw i64 %228, %229
  %231 = getelementptr inbounds [2 x i32], ptr %226, i64 %230
  %232 = getelementptr inbounds [2 x i32], ptr %231, i64 0, i64 1
  store i32 %225, ptr %232, align 4, !tbaa !19
  call void @llvm.lifetime.end.p0(i64 8, ptr %19) #3
  call void @llvm.lifetime.end.p0(i64 8, ptr %18) #3
  br label %233

233:                                              ; preds = %210
  %234 = load i32, ptr %16, align 4, !tbaa !19
  %235 = add nsw i32 %234, 1
  store i32 %235, ptr %16, align 4, !tbaa !19
  br label %102, !llvm.loop !28

236:                                              ; preds = %106
  call void @llvm.lifetime.end.p0(i64 48, ptr %14) #3
  call void @llvm.lifetime.end.p0(i64 48, ptr %13) #3
  call void @llvm.lifetime.end.p0(i64 48, ptr %12) #3
  call void @llvm.lifetime.end.p0(i64 48, ptr %11) #3
  ret void
}