; Function Attrs: nofree norecurse nosync nounwind memory(argmem: readwrite) uwtable
define internal void @ps_hybrid_analysis_c(ptr noalias noundef writeonly captures(none) %0, ptr noundef readonly captures(none) %1, ptr noundef readonly captures(none) %2, i64 noundef %3, i32 noundef %4) #1 {
  %6 = alloca [6 x i64], align 16
  %7 = alloca [6 x i64], align 16
  %8 = alloca [6 x i64], align 16
  %9 = alloca [6 x i64], align 16
  call void @llvm.lifetime.start.p0(i64 48, ptr nonnull %6) #3
  call void @llvm.lifetime.start.p0(i64 48, ptr nonnull %7) #3
  call void @llvm.lifetime.start.p0(i64 48, ptr nonnull %8) #3
  call void @llvm.lifetime.start.p0(i64 48, ptr nonnull %9) #3
  br label %17

.preheader:                                       ; preds = %17
  %10 = icmp sgt i32 %4, 0
  br i1 %10, label %.lr.ph, label %._crit_edge

.lr.ph:                                           ; preds = %.preheader
  %11 = getelementptr inbounds nuw i8, ptr %1, i64 48
  %12 = load i32, ptr %11, align 4, !tbaa !15
  %13 = sext i32 %12 to i64
  %14 = getelementptr inbounds nuw i8, ptr %1, i64 52
  %15 = load i32, ptr %14, align 4, !tbaa !15
  %16 = sext i32 %15 to i64
  %wide.trip.count = zext nneg i32 %4 to i64
  br label %39

17:                                               ; preds = %5, %17
  %indvars.iv = phi i64 [ 0, %5 ], [ %indvars.iv.next, %17 ]
  %18 = getelementptr inbounds nuw [2 x i32], ptr %1, i64 %indvars.iv
  %19 = load i32, ptr %18, align 4, !tbaa !15
  %20 = sub nuw nsw i64 12, %indvars.iv
  %21 = getelementptr inbounds nuw [2 x i32], ptr %1, i64 %20
  %22 = load i32, ptr %21, align 4, !tbaa !15
  %23 = add nsw i32 %22, %19
  %24 = sext i32 %23 to i64
  %25 = getelementptr inbounds nuw [6 x i64], ptr %6, i64 0, i64 %indvars.iv
  store i64 %24, ptr %25, align 8, !tbaa !20
  %26 = getelementptr inbounds nuw i8, ptr %18, i64 4
  %27 = load i32, ptr %26, align 4, !tbaa !15
  %28 = getelementptr inbounds nuw i8, ptr %21, i64 4
  %29 = load i32, ptr %28, align 4, !tbaa !15
  %30 = sub nsw i32 %27, %29
  %31 = sext i32 %30 to i64
  %32 = getelementptr inbounds nuw [6 x i64], ptr %7, i64 0, i64 %indvars.iv
  store i64 %31, ptr %32, align 8, !tbaa !20
  %33 = add nsw i32 %29, %27
  %34 = sext i32 %33 to i64
  %35 = getelementptr inbounds nuw [6 x i64], ptr %8, i64 0, i64 %indvars.iv
  store i64 %34, ptr %35, align 8, !tbaa !20
  %36 = sub nsw i32 %19, %22
  %37 = sext i32 %36 to i64
  %38 = getelementptr inbounds nuw [6 x i64], ptr %9, i64 0, i64 %indvars.iv
  store i64 %37, ptr %38, align 8, !tbaa !20
  %indvars.iv.next = add nuw nsw i64 %indvars.iv, 1
  %exitcond.not = icmp eq i64 %indvars.iv.next, 6
  br i1 %exitcond.not, label %.preheader, label %17, !llvm.loop !22

._crit_edge:                                      ; preds = %45, %.preheader
  call void @llvm.lifetime.end.p0(i64 48, ptr nonnull %9) #3
  call void @llvm.lifetime.end.p0(i64 48, ptr nonnull %8) #3
  call void @llvm.lifetime.end.p0(i64 48, ptr nonnull %7) #3
  call void @llvm.lifetime.end.p0(i64 48, ptr nonnull %6) #3
  ret void

39:                                               ; preds = %.lr.ph, %45
  %indvars.iv73 = phi i64 [ 0, %.lr.ph ], [ %indvars.iv.next74, %45 ]
  %40 = getelementptr inbounds nuw [8 x [2 x i32]], ptr %2, i64 %indvars.iv73, i64 6
  %41 = load i32, ptr %40, align 4, !tbaa !15
  %42 = sext i32 %41 to i64
  %43 = mul nsw i64 %13, %42
  %44 = mul nsw i64 %16, %42
  br label %55

45:                                               ; preds = %55
  %46 = add nsw i64 %69, 1073741824
  %47 = lshr i64 %46, 31
  %48 = trunc i64 %47 to i32
  %49 = mul nsw i64 %3, %indvars.iv73
  %50 = getelementptr inbounds [2 x i32], ptr %0, i64 %49
  store i32 %48, ptr %50, align 4, !tbaa !15
  %51 = add nsw i64 %77, 1073741824
  %52 = lshr i64 %51, 31
  %53 = trunc i64 %52 to i32
  %54 = getelementptr inbounds nuw i8, ptr %50, i64 4
  store i32 %53, ptr %54, align 4, !tbaa !15
  %indvars.iv.next74 = add nuw nsw i64 %indvars.iv73, 1
  %exitcond76.not = icmp eq i64 %indvars.iv.next74, %wide.trip.count
  br i1 %exitcond76.not, label %._crit_edge, label %39, !llvm.loop !23

55:                                               ; preds = %39, %55
  %indvars.iv69 = phi i64 [ 0, %39 ], [ %indvars.iv.next70, %55 ]
  %.05864 = phi i64 [ %44, %39 ], [ %77, %55 ]
  %.05963 = phi i64 [ %43, %39 ], [ %69, %55 ]
  %56 = getelementptr inbounds nuw [8 x [2 x i32]], ptr %2, i64 %indvars.iv73, i64 %indvars.iv69
  %57 = load i32, ptr %56, align 4, !tbaa !15
  %58 = sext i32 %57 to i64
  %59 = getelementptr inbounds nuw [6 x i64], ptr %6, i64 0, i64 %indvars.iv69
  %60 = load i64, ptr %59, align 8, !tbaa !20
  %61 = mul nsw i64 %60, %58
  %62 = getelementptr inbounds nuw i8, ptr %56, i64 4
  %63 = load i32, ptr %62, align 4, !tbaa !15
  %64 = sext i32 %63 to i64
  %65 = getelementptr inbounds nuw [6 x i64], ptr %7, i64 0, i64 %indvars.iv69
  %66 = load i64, ptr %65, align 8, !tbaa !20
  %67 = mul nsw i64 %66, %64
  %68 = add i64 %61, %.05963
  %69 = sub i64 %68, %67
  %70 = getelementptr inbounds nuw [6 x i64], ptr %8, i64 0, i64 %indvars.iv69
  %71 = load i64, ptr %70, align 8, !tbaa !20
  %72 = mul nsw i64 %71, %58
  %73 = getelementptr inbounds nuw [6 x i64], ptr %9, i64 0, i64 %indvars.iv69
  %74 = load i64, ptr %73, align 8, !tbaa !20
  %75 = mul nsw i64 %74, %64
  %76 = add i64 %72, %.05864
  %77 = add i64 %76, %75
  %indvars.iv.next70 = add nuw nsw i64 %indvars.iv69, 1
  %exitcond72.not = icmp eq i64 %indvars.iv.next70, 6
  br i1 %exitcond72.not, label %45, label %55, !llvm.loop !24
}